; Function Attrs: cold nounwind optsize uwtable
define void @avpriv_elbg_free(ptr noundef %0) local_unnamed_addr #5 {
  %2 = load ptr, ptr %0, align 8, !tbaa !4
  %.not = icmp eq ptr %2, null
  br i1 %.not, label %11, label %3

3:                                                ; preds = %1
  %4 = getelementptr inbounds nuw i8, ptr %2, i64 72
  tail call void @av_freep(ptr noundef nonnull %4) #9
  %5 = getelementptr inbounds nuw i8, ptr %2, i64 32
  tail call void @av_freep(ptr noundef nonnull %5) #9
  %6 = getelementptr inbounds nuw i8, ptr %2, i64 96
  tail call void @av_freep(ptr noundef nonnull %6) #9
  %7 = getelementptr inbounds nuw i8, ptr %2, i64 24
  tail call void @av_freep(ptr noundef nonnull %7) #9
  %8 = getelementptr inbounds nuw i8, ptr %2, i64 40
  tail call void @av_freep(ptr noundef nonnull %8) #9
  %9 = getelementptr inbounds nuw i8, ptr %2, i64 88
  tail call void @av_freep(ptr noundef nonnull %9) #9
  %10 = getelementptr inbounds nuw i8, ptr %2, i64 64
  tail call void @av_freep(ptr noundef nonnull %10) #9
  tail call void @av_freep(ptr noundef nonnull %0) #9
  br label %11

11:                                               ; preds = %1, %3
  ret void
}